; Function Attrs: mustprogress uwtable
define void @_ZN5faiss12IndexIVFFlatC2Ev(ptr noundef nonnull align 8 dereferenceable(265) %0) unnamed_addr #3 align 2 {
  tail call void @_ZN5faiss8IndexIVFC2Ev(ptr noundef nonnull align 8 dereferenceable(265) %0)
  store ptr getelementptr inbounds nuw inrange(-16, 272) (i8, ptr @_ZTVN5faiss12IndexIVFFlatE, i64 16), ptr %0, align 8, !tbaa !62
  %2 = getelementptr inbounds nuw i8, ptr %0, i64 40
  store ptr getelementptr inbounds nuw inrange(-16, 32) (i8, ptr @_ZTVN5faiss12IndexIVFFlatE, i64 304), ptr %2, align 8, !tbaa !62
  %3 = getelementptr inbounds nuw i8, ptr %0, i64 264
  store i8 0, ptr %3, align 8, !tbaa !51
  ret void
}